; Function Attrs: mustprogress uwtable
define void @_ZN7Imf_3_424getCompressionNameFromIdENS_11CompressionERNSt7__cxx1112basic_stringIcSt11char_traitsIcESaIcEEE(i32 noundef %0, ptr noundef nonnull align 8 dereferenceable(32) %1) local_unnamed_addr #5 {
  %or.cond = icmp ugt i32 %0, 9
  br i1 %or.cond, label %3, label %7

3:                                                ; preds = %2
  %4 = getelementptr inbounds nuw i8, ptr %1, i64 8
  %5 = load i64, ptr %4, align 8, !tbaa !11
  %6 = tail call noundef nonnull align 8 dereferenceable(32) ptr @_ZNSt7__cxx1112basic_stringIcSt11char_traitsIcESaIcEE10_M_replaceEmmPKcm(ptr noundef nonnull align 8 dereferenceable(32) %1, i64 noundef 0, i64 noundef %5, ptr noundef nonnull @.str.22, i64 noundef 22)
  br label %7

7:                                                ; preds = %2, %3
  %8 = sext i32 %0 to i64
  %9 = getelementptr inbounds [10 x %"struct.Imf_3_4::CompressionDesc"], ptr @_ZN7Imf_3_4L8IdToDescE, i64 0, i64 %8
  tail call void @_ZNSt7__cxx1112basic_stringIcSt11char_traitsIcESaIcEE9_M_assignERKS4_(ptr noundef nonnull align 8 dereferenceable(32) %1, ptr noundef nonnull align 8 dereferenceable(32) %9)
  ret void
}